; Function Attrs: mustprogress uwtable
define void @_ZN2cv9videostab17TwoPassStabilizer27estimateStabilizationMotionEv(ptr dead_on_unwind noalias writable sret(%"class.cv::Mat") align 8 %0, ptr noundef nonnull readonly align 8 captures(none) dereferenceable(864) %1) unnamed_addr #3 align 2 {
  %3 = getelementptr inbounds nuw i8, ptr %1, i64 656
  %4 = getelementptr inbounds nuw i8, ptr %1, i64 228
  %5 = load i32, ptr %4, align 4, !tbaa !107
  %6 = sext i32 %5 to i64
  %7 = load ptr, ptr %3, align 8, !tbaa !112
  %8 = getelementptr inbounds nuw %"class.cv::Mat", ptr %7, i64 %6
  tail call void @_ZNK2cv3Mat5cloneEv(ptr dead_on_unwind writable sret(%"class.cv::Mat") align 8 %0, ptr noundef nonnull align 8 dereferenceable(96) %8)
  ret void
}